; Function Attrs: mustprogress nofree norecurse nosync nounwind willreturn memory(argmem: write) uwtable
define range(i32 -173, 1) i32 @wc_PKCS12_SetHeap(ptr noundef writeonly captures(address_is_null) %0, ptr noundef %1) local_unnamed_addr #6 {
  %3 = icmp eq ptr %0, null
  br i1 %3, label %5, label %4

4:                                                ; preds = %2
  store ptr %1, ptr %0, align 8, !tbaa !3
  br label %5

5:                                                ; preds = %2, %4
  %.0 = phi i32 [ 0, %4 ], [ -173, %2 ]
  ret i32 %.0
}